target datalayout = "e-m:e-p270:32:32-p271:32:32-p272:64:64-i64:64-i128:128-f80:128-n8:16:32:64-S128"
target triple = "x86_64-pc-linux-gnu"

; Function Attrs: nounwind uwtable
define i32 @H5P__encode_uint64_t(ptr noundef %0, ptr noundef %1, ptr noundef %2) #0 {
  %4 = alloca ptr, align 8
  %5 = alloca ptr, align 8
  %6 = alloca ptr, align 8
  %7 = alloca ptr, align 8
  %8 = alloca i64, align 8
  %9 = alloca i64, align 8
  %10 = alloca ptr, align 8
  store ptr %0, ptr %4, align 8
  store ptr %1, ptr %5, align 8
  store ptr %2, ptr %6, align 8
  %11 = load ptr, ptr %5, align 8
  store ptr %11, ptr %7, align 8
  %12 = load ptr, ptr %7, align 8
  %13 = load ptr, ptr %12, align 8
  %14 = icmp ne ptr null, %13
  br i1 %14, label %15, label %55

15:                                               ; preds = %3
  %16 = load ptr, ptr %7, align 8
  %17 = load ptr, ptr %16, align 8
  %18 = getelementptr inbounds i8, ptr %17, i32 1
  store ptr %18, ptr %16, align 8
  store i8 8, ptr %17, align 1
  br label %19

19:                                               ; preds = %15
  %20 = load ptr, ptr %4, align 8
  %21 = load i32, ptr %20, align 4
  %22 = zext i32 %21 to i64
  store i64 %22, ptr %8, align 8
  %23 = load ptr, ptr %7, align 8
  %24 = load ptr, ptr %23, align 8
  store ptr %24, ptr %10, align 8
  store i64 0, ptr %9, align 8
  br label %25

25:                                               ; preds = %34, %19
  %26 = load i64, ptr %9, align 8
  %27 = icmp ult i64 %26, 8
  br i1 %27, label %28, label %39

28:                                               ; preds = %25
  %29 = load i64, ptr %8, align 8
  %30 = and i64 %29, 255
  %31 = trunc i64 %30 to i8
  %32 = load ptr, ptr %10, align 8
  %33 = getelementptr inbounds i8, ptr %32, i32 1
  store ptr %33, ptr %10, align 8
  store i8 %31, ptr %32, align 1
  br label %34

34:                                               ; preds = %28
  %35 = load i64, ptr %9, align 8
  %36 = add i64 %35, 1
  store i64 %36, ptr %9, align 8
  %37 = load i64, ptr %8, align 8
  %38 = lshr i64 %37, 8
  store i64 %38, ptr %8, align 8
  br label %25

39:                                               ; preds = %25
  br label %40

40:                                               ; preds = %46, %39
  %41 = load i64, ptr %9, align 8
  %42 = icmp ult i64 %41, 8
  br i1 %42, label %43, label %49

43:                                               ; preds = %40
  %44 = load ptr, ptr %10, align 8
  %45 = getelementptr inbounds i8, ptr %44, i32 1
  store ptr %45, ptr %10, align 8
  store i8 0, ptr %44, align 1
  br label %46

46:                                               ; preds = %43
  %47 = load i64, ptr %9, align 8
  %48 = add i64 %47, 1
  store i64 %48, ptr %9, align 8
  br label %40

49:                                               ; preds = %40
  %50 = load ptr, ptr %7, align 8
  %51 = load ptr, ptr %50, align 8
  %52 = getelementptr inbounds i8, ptr %51, i64 8
  %53 = load ptr, ptr %7, align 8
  store ptr %52, ptr %53, align 8
  br label %54

54:                                               ; preds = %49
  br label %55

55:                                               ; preds = %54, %3
  %56 = load ptr, ptr %6, align 8
  %57 = load i64, ptr %56, align 8
  %58 = add i64 %57, 9
  store i64 %58, ptr %56, align 8
  ret i32 0
}