; Function Attrs: nofree norecurse nosync nounwind memory(write, argmem: readwrite, inaccessiblemem: none) uwtable
define noundef i32 @H5P__encode_uint64_t(ptr noundef readonly captures(none) %0, ptr noundef captures(none) %1, ptr noundef captures(none) %2) local_unnamed_addr #0 {
  %4 = load ptr, ptr %1, align 8
  %.not = icmp eq ptr %4, null
  br i1 %.not, label %17, label %5

5:                                                ; preds = %3
  %6 = getelementptr inbounds nuw i8, ptr %4, i64 1
  store ptr %6, ptr %1, align 8
  store i8 8, ptr %4, align 1
  %7 = load i32, ptr %0, align 4
  %8 = load ptr, ptr %1, align 8
  br label %9

9:                                                ; preds = %5, %9
  %.021 = phi ptr [ %8, %5 ], [ %11, %9 ]
  %.01520 = phi i64 [ 0, %5 ], [ %12, %9 ]
  %.01719 = phi i32 [ %7, %5 ], [ %13, %9 ]
  %10 = trunc i32 %.01719 to i8
  %11 = getelementptr inbounds nuw i8, ptr %.021, i64 1
  store i8 %10, ptr %.021, align 1
  %12 = add nuw nsw i64 %.01520, 1
  %13 = lshr i32 %.01719, 8
  %exitcond.not = icmp eq i64 %12, 8
  br i1 %exitcond.not, label %14, label %9

14:                                               ; preds = %9
  %15 = load ptr, ptr %1, align 8
  %16 = getelementptr inbounds nuw i8, ptr %15, i64 8
  store ptr %16, ptr %1, align 8
  br label %17

17:                                               ; preds = %14, %3
  %18 = load i64, ptr %2, align 8
  %19 = add i64 %18, 9
  store i64 %19, ptr %2, align 8
  ret i32 0
}